; Function Attrs: nounwind uwtable
define void @ff_mjpeg_encode_dc(ptr noundef captures(none) %0, i32 noundef %1, ptr noundef readonly captures(none) %2, ptr noundef readonly captures(none) %3) local_unnamed_addr #0 {
  %5 = icmp eq i32 %1, 0
  br i1 %5, label %6, label %39

6:                                                ; preds = %4
  %7 = load i8, ptr %2, align 1, !tbaa !38
  %8 = zext i8 %7 to i32
  %9 = load i16, ptr %3, align 2, !tbaa !52
  %10 = zext i16 %9 to i32
  %11 = load i32, ptr %0, align 8, !tbaa !33
  %12 = getelementptr inbounds nuw i8, ptr %0, i64 4
  %13 = load i32, ptr %12, align 4, !tbaa !35
  %14 = icmp sgt i32 %13, %8
  br i1 %14, label %15, label %19

15:                                               ; preds = %6
  %16 = shl i32 %11, %8
  %17 = or i32 %16, %10
  %18 = sub nsw i32 %13, %8
  br label %put_bits.exit

19:                                               ; preds = %6
  %20 = getelementptr inbounds nuw i8, ptr %0, i64 24
  %21 = load ptr, ptr %20, align 8, !tbaa !36
  %22 = getelementptr inbounds nuw i8, ptr %0, i64 16
  %23 = load ptr, ptr %22, align 8, !tbaa !37
  %24 = ptrtoint ptr %21 to i64
  %25 = ptrtoint ptr %23 to i64
  %26 = sub i64 %24, %25
  %27 = icmp ugt i64 %26, 3
  br i1 %27, label %28, label %36

28:                                               ; preds = %19
  %29 = shl i32 %11, %13
  %30 = sub nsw i32 %8, %13
  %31 = lshr i32 %10, %30
  %32 = or i32 %31, %29
  %33 = tail call i32 @llvm.bswap.i32(i32 %32)
  store i32 %33, ptr %23, align 1, !tbaa !38
  %34 = load ptr, ptr %22, align 8, !tbaa !37
  %35 = getelementptr inbounds nuw i8, ptr %34, i64 4
  store ptr %35, ptr %22, align 8, !tbaa !37
  br label %37

36:                                               ; preds = %19
  tail call void (ptr, i32, ptr, ...) @av_log(ptr noundef null, i32 noundef 16, ptr noundef nonnull @.str.10) #8
  br label %37

37:                                               ; preds = %36, %28
  %reass.sub26 = sub i32 %13, %8
  %38 = add i32 %reass.sub26, 32
  br label %put_bits.exit

put_bits.exit:                                    ; preds = %15, %37
  %.026.i.i = phi i32 [ %17, %15 ], [ %10, %37 ]
  %.0.i.i = phi i32 [ %18, %15 ], [ %38, %37 ]
  store i32 %.026.i.i, ptr %0, align 8, !tbaa !33
  store i32 %.0.i.i, ptr %12, align 4, !tbaa !35
  br label %110

39:                                               ; preds = %4
  %.lobit = ashr i32 %1, 31
  %.016 = add nsw i32 %.lobit, %1
  %.0 = tail call i32 @llvm.abs.i32(i32 %1, i1 true)
  %40 = and i32 %.0, 65280
  %.not.i = icmp eq i32 %40, 0
  %41 = lshr i32 %.0, 8
  %spec.select.i = select i1 %.not.i, i32 %.0, i32 %41
  %spec.select7.i = select i1 %.not.i, i32 0, i32 8
  %42 = zext nneg i32 %spec.select.i to i64
  %43 = getelementptr inbounds nuw [256 x i8], ptr @ff_log2_tab, i64 0, i64 %42
  %44 = load i8, ptr %43, align 1, !tbaa !38
  %45 = zext i8 %44 to i32
  %46 = add nuw nsw i32 %spec.select7.i, %45
  %47 = add nuw nsw i32 %46, 1
  %48 = zext nneg i32 %47 to i64
  %49 = getelementptr inbounds nuw i8, ptr %2, i64 %48
  %50 = load i8, ptr %49, align 1, !tbaa !38
  %51 = zext i8 %50 to i32
  %52 = getelementptr inbounds nuw i16, ptr %3, i64 %48
  %53 = load i16, ptr %52, align 2, !tbaa !52
  %54 = zext i16 %53 to i32
  %55 = load i32, ptr %0, align 8, !tbaa !33
  %56 = getelementptr inbounds nuw i8, ptr %0, i64 4
  %57 = load i32, ptr %56, align 4, !tbaa !35
  %58 = icmp sgt i32 %57, %51
  br i1 %58, label %59, label %63

59:                                               ; preds = %39
  %60 = shl i32 %55, %51
  %61 = or i32 %60, %54
  %62 = sub nsw i32 %57, %51
  br label %put_bits.exit21

63:                                               ; preds = %39
  %64 = getelementptr inbounds nuw i8, ptr %0, i64 24
  %65 = load ptr, ptr %64, align 8, !tbaa !36
  %66 = getelementptr inbounds nuw i8, ptr %0, i64 16
  %67 = load ptr, ptr %66, align 8, !tbaa !37
  %68 = ptrtoint ptr %65 to i64
  %69 = ptrtoint ptr %67 to i64
  %70 = sub i64 %68, %69
  %71 = icmp ugt i64 %70, 3
  br i1 %71, label %72, label %80

72:                                               ; preds = %63
  %73 = shl i32 %55, %57
  %74 = sub nsw i32 %51, %57
  %75 = lshr i32 %54, %74
  %76 = or i32 %75, %73
  %77 = tail call i32 @llvm.bswap.i32(i32 %76)
  store i32 %77, ptr %67, align 1, !tbaa !38
  %78 = load ptr, ptr %66, align 8, !tbaa !37
  %79 = getelementptr inbounds nuw i8, ptr %78, i64 4
  store ptr %79, ptr %66, align 8, !tbaa !37
  br label %81

80:                                               ; preds = %63
  tail call void (ptr, i32, ptr, ...) @av_log(ptr noundef null, i32 noundef 16, ptr noundef nonnull @.str.10) #8
  br label %81

81:                                               ; preds = %80, %72
  %reass.sub = sub i32 %57, %51
  %82 = add i32 %reass.sub, 32
  br label %put_bits.exit21

put_bits.exit21:                                  ; preds = %59, %81
  %.026.i.i19 = phi i32 [ %61, %59 ], [ %54, %81 ]
  %.0.i.i20 = phi i32 [ %62, %59 ], [ %82, %81 ]
  store i32 %.026.i.i19, ptr %0, align 8, !tbaa !33
  store i32 %.0.i.i20, ptr %56, align 4, !tbaa !35
  %notmask.i.i = shl nsw i32 -2, %46
  %83 = xor i32 %notmask.i.i, -1
  %84 = and i32 %.016, %83
  %85 = icmp slt i32 %47, %.0.i.i20
  br i1 %85, label %86, label %90

86:                                               ; preds = %put_bits.exit21
  %87 = shl i32 %.026.i.i19, %47
  %88 = or i32 %87, %84
  %89 = sub nsw i32 %.0.i.i20, %47
  br label %put_sbits.exit

90:                                               ; preds = %put_bits.exit21
  %91 = getelementptr inbounds nuw i8, ptr %0, i64 24
  %92 = load ptr, ptr %91, align 8, !tbaa !36
  %93 = getelementptr inbounds nuw i8, ptr %0, i64 16
  %94 = load ptr, ptr %93, align 8, !tbaa !37
  %95 = ptrtoint ptr %92 to i64
  %96 = ptrtoint ptr %94 to i64
  %97 = sub i64 %95, %96
  %98 = icmp ugt i64 %97, 3
  br i1 %98, label %99, label %107

99:                                               ; preds = %90
  %100 = shl i32 %.026.i.i19, %.0.i.i20
  %101 = sub nsw i32 %47, %.0.i.i20
  %102 = lshr i32 %84, %101
  %103 = or i32 %102, %100
  %104 = tail call i32 @llvm.bswap.i32(i32 %103)
  store i32 %104, ptr %94, align 1, !tbaa !38
  %105 = load ptr, ptr %93, align 8, !tbaa !37
  %106 = getelementptr inbounds nuw i8, ptr %105, i64 4
  store ptr %106, ptr %93, align 8, !tbaa !37
  br label %108

107:                                              ; preds = %90
  tail call void (ptr, i32, ptr, ...) @av_log(ptr noundef null, i32 noundef 16, ptr noundef nonnull @.str.10) #8
  br label %108

108:                                              ; preds = %107, %99
  %reass.sub25 = sub i32 %.0.i.i20, %46
  %109 = add i32 %reass.sub25, 31
  br label %put_sbits.exit

put_sbits.exit:                                   ; preds = %86, %108
  %.026.i.i.i = phi i32 [ %88, %86 ], [ %84, %108 ]
  %.0.i.i.i = phi i32 [ %89, %86 ], [ %109, %108 ]
  store i32 %.026.i.i.i, ptr %0, align 8, !tbaa !33
  store i32 %.0.i.i.i, ptr %56, align 4, !tbaa !35
  br label %110

110:                                              ; preds = %put_sbits.exit, %put_bits.exit
  ret void
}